; Function Attrs: nofree norecurse nosync nounwind memory(read, inaccessiblemem: none) uwtable
define dso_local noundef ptr @sema_decl_stack_resolve_symbol(ptr noundef readnone %0) local_unnamed_addr #0 {
  %2 = load ptr, ptr getelementptr inbounds (%struct.GlobalContext, ptr @global_context, i64 0, i32 30), align 8
  %3 = load ptr, ptr getelementptr inbounds (%struct.GlobalContext, ptr @global_context, i64 0, i32 29), align 8
  br label %4

4:                                                ; preds = %6, %1
  %.07 = phi ptr [ %2, %1 ], [ %7, %6 ]
  %5 = icmp ugt ptr %.07, %3
  br i1 %5, label %6, label %11

6:                                                ; preds = %4
  %7 = getelementptr inbounds i8, ptr %.07, i64 -8
  %8 = load ptr, ptr %7, align 8
  %9 = load ptr, ptr %8, align 8
  %10 = icmp eq ptr %9, %0
  br i1 %10, label %11, label %4, !llvm.loop !7

11:                                               ; preds = %4, %6
  %.0 = phi ptr [ %8, %6 ], [ null, %4 ]
  ret ptr %.0
}